target datalayout = "e-m:e-p270:32:32-p271:32:32-p272:64:64-i64:64-i128:128-f80:128-n8:16:32:64-S128"
target triple = "x86_64-unknown-linux-gnu"

%"class.zmq::router_t" = type <{ %"class.zmq::routing_socket_base_t", %"class.zmq::fq_t", i8, i8, [6 x i8], %"class.zmq::msg_t", %"class.zmq::msg_t", ptr, i8, i8, [6 x i8], %"class.std::set.67", ptr, i8, [3 x i8], i32, i8, i8, i8, i8, [4 x i8] }>
%"class.zmq::routing_socket_base_t" = type { %"class.zmq::socket_base_t.base", %"class.std::map.50", %"class.std::__cxx11::basic_string" }
%"class.zmq::socket_base_t.base" = type <{ %"class.zmq::own_t.base", [4 x i8], %"class.zmq::array_item_t.base", [4 x i8], %"struct.zmq::i_poll_events", %"struct.zmq::i_pipe_events", %"class.zmq::mutex_t", %"class.std::multimap", %"class.zmq::socket_base_t::inprocs_t", i32, i8, i8, [2 x i8], ptr, %"class.zmq::array_t", ptr, ptr, i64, i32, i8, [3 x i8], %"class.zmq::clock_t", ptr, i64, %"class.std::__cxx11::basic_string", i8, [7 x i8], ptr, %"class.zmq::mutex_t", i8 }>
%"class.zmq::own_t.base" = type <{ %"class.zmq::object_t.base", [4 x i8], %"struct.zmq::options_t", i8, [7 x i8], %"class.zmq::atomic_counter_t", i64, ptr, %"class.std::set.28", i32 }>
%"class.zmq::object_t.base" = type <{ ptr, ptr, i32 }>
%"struct.zmq::options_t" = type { i32, i32, i64, i8, [256 x i8], i32, i32, i32, i32, i32, i32, i32, i32, i8, %"struct.zmq::atomic_value_t", i32, i32, i32, i32, i32, i32, i64, i32, i32, i8, i32, i8, i8, i8, i8, i8, %"class.std::__cxx11::basic_string", %"class.std::__cxx11::basic_string", %"class.std::__cxx11::basic_string", i32, i32, i32, i32, %"class.std::vector", %"class.std::set", %"class.std::set", %"class.std::set.6", i32, i32, %"class.std::__cxx11::basic_string", %"class.std::__cxx11::basic_string", %"class.std::__cxx11::basic_string", [32 x i8], [32 x i8], [32 x i8], %"class.std::__cxx11::basic_string", %"class.std::__cxx11::basic_string", i32, i32, i8, i32, i8, i32, i8, i16, i32, i32, i32, %"class.std::__cxx11::basic_string", i8, i8, i8, i32, i32, i8, i32, %"class.std::map", i32, %"class.std::__cxx11::basic_string", %"class.std::__cxx11::basic_string", %"class.std::__cxx11::basic_string", %"class.std::__cxx11::basic_string", i8, %"class.std::vector.21", i8, %"class.std::vector.21", i8, %"class.std::vector.21", i8, i32, i8, i32, i32, i32, i32, i32, i8, i32 }
%"struct.zmq::atomic_value_t" = type { %"struct.std::atomic" }
%"struct.std::atomic" = type { %"struct.std::__atomic_base" }
%"struct.std::__atomic_base" = type { i32 }
%"class.std::vector" = type { %"struct.std::_Vector_base" }
%"struct.std::_Vector_base" = type { %"struct.std::_Vector_base<zmq::tcp_address_mask_t, std::allocator<zmq::tcp_address_mask_t>>::_Vector_impl" }
%"struct.std::_Vector_base<zmq::tcp_address_mask_t, std::allocator<zmq::tcp_address_mask_t>>::_Vector_impl" = type { %"struct.std::_Vector_base<zmq::tcp_address_mask_t, std::allocator<zmq::tcp_address_mask_t>>::_Vector_impl_data" }
%"struct.std::_Vector_base<zmq::tcp_address_mask_t, std::allocator<zmq::tcp_address_mask_t>>::_Vector_impl_data" = type { ptr, ptr, ptr }
%"class.std::set" = type { %"class.std::_Rb_tree" }
%"class.std::_Rb_tree" = type { %"struct.std::_Rb_tree<unsigned int, unsigned int, std::_Identity<unsigned int>, std::less<unsigned int>>::_Rb_tree_impl" }
%"struct.std::_Rb_tree<unsigned int, unsigned int, std::_Identity<unsigned int>, std::less<unsigned int>>::_Rb_tree_impl" = type { %"struct.std::_Rb_tree_key_compare", %"struct.std::_Rb_tree_header" }
%"struct.std::_Rb_tree_key_compare" = type { %"struct.std::less" }
%"struct.std::less" = type { i8 }
%"struct.std::_Rb_tree_header" = type { %"struct.std::_Rb_tree_node_base", i64 }
%"struct.std::_Rb_tree_node_base" = type { i32, ptr, ptr, ptr }
%"class.std::set.6" = type { %"class.std::_Rb_tree.7" }
%"class.std::_Rb_tree.7" = type { %"struct.std::_Rb_tree<int, int, std::_Identity<int>, std::less<int>>::_Rb_tree_impl" }
%"struct.std::_Rb_tree<int, int, std::_Identity<int>, std::less<int>>::_Rb_tree_impl" = type { %"struct.std::_Rb_tree_key_compare.11", %"struct.std::_Rb_tree_header" }
%"struct.std::_Rb_tree_key_compare.11" = type { %"struct.std::less.12" }
%"struct.std::less.12" = type { i8 }
%"class.std::map" = type { %"class.std::_Rb_tree.14" }
%"class.std::_Rb_tree.14" = type { %"struct.std::_Rb_tree<std::__cxx11::basic_string<char>, std::pair<const std::__cxx11::basic_string<char>, std::__cxx11::basic_string<char>>, std::_Select1st<std::pair<const std::__cxx11::basic_string<char>, std::__cxx11::basic_string<char>>>, std::less<std::__cxx11::basic_string<char>>>::_Rb_tree_impl" }
%"struct.std::_Rb_tree<std::__cxx11::basic_string<char>, std::pair<const std::__cxx11::basic_string<char>, std::__cxx11::basic_string<char>>, std::_Select1st<std::pair<const std::__cxx11::basic_string<char>, std::__cxx11::basic_string<char>>>, std::less<std::__cxx11::basic_string<char>>>::_Rb_tree_impl" = type { %"struct.std::_Rb_tree_key_compare.18", %"struct.std::_Rb_tree_header" }
%"struct.std::_Rb_tree_key_compare.18" = type { %"struct.std::less.19" }
%"struct.std::less.19" = type { i8 }
%"class.std::vector.21" = type { %"struct.std::_Vector_base.22" }
%"struct.std::_Vector_base.22" = type { %"struct.std::_Vector_base<unsigned char, std::allocator<unsigned char>>::_Vector_impl" }
%"struct.std::_Vector_base<unsigned char, std::allocator<unsigned char>>::_Vector_impl" = type { %"struct.std::_Vector_base<unsigned char, std::allocator<unsigned char>>::_Vector_impl_data" }
%"struct.std::_Vector_base<unsigned char, std::allocator<unsigned char>>::_Vector_impl_data" = type { ptr, ptr, ptr }
%"class.zmq::atomic_counter_t" = type { %"struct.std::atomic.26", [4 x i8] }
%"struct.std::atomic.26" = type { %"struct.std::__atomic_base.27" }
%"struct.std::__atomic_base.27" = type { i32 }
%"class.std::set.28" = type { %"class.std::_Rb_tree.29" }
%"class.std::_Rb_tree.29" = type { %"struct.std::_Rb_tree<zmq::own_t *, zmq::own_t *, std::_Identity<zmq::own_t *>, std::less<zmq::own_t *>>::_Rb_tree_impl" }
%"struct.std::_Rb_tree<zmq::own_t *, zmq::own_t *, std::_Identity<zmq::own_t *>, std::less<zmq::own_t *>>::_Rb_tree_impl" = type { %"struct.std::_Rb_tree_key_compare.33", %"struct.std::_Rb_tree_header" }
%"struct.std::_Rb_tree_key_compare.33" = type { %"struct.std::less.34" }
%"struct.std::less.34" = type { i8 }
%"class.zmq::array_item_t.base" = type <{ ptr, i32 }>
%"struct.zmq::i_poll_events" = type { ptr }
%"struct.zmq::i_pipe_events" = type { ptr }
%"class.std::multimap" = type { %"class.std::_Rb_tree.36" }
%"class.std::_Rb_tree.36" = type { %"struct.std::_Rb_tree<std::__cxx11::basic_string<char>, std::pair<const std::__cxx11::basic_string<char>, std::pair<zmq::own_t *, zmq::pipe_t *>>, std::_Select1st<std::pair<const std::__cxx11::basic_string<char>, std::pair<zmq::own_t *, zmq::pipe_t *>>>, std::less<std::__cxx11::basic_string<char>>>::_Rb_tree_impl" }
%"struct.std::_Rb_tree<std::__cxx11::basic_string<char>, std::pair<const std::__cxx11::basic_string<char>, std::pair<zmq::own_t *, zmq::pipe_t *>>, std::_Select1st<std::pair<const std::__cxx11::basic_string<char>, std::pair<zmq::own_t *, zmq::pipe_t *>>>, std::less<std::__cxx11::basic_string<char>>>::_Rb_tree_impl" = type { %"struct.std::_Rb_tree_key_compare.18", %"struct.std::_Rb_tree_header" }
%"class.zmq::socket_base_t::inprocs_t" = type { %"class.std::multimap.40" }
%"class.std::multimap.40" = type { %"class.std::_Rb_tree.41" }
%"class.std::_Rb_tree.41" = type { %"struct.std::_Rb_tree<std::__cxx11::basic_string<char>, std::pair<const std::__cxx11::basic_string<char>, zmq::pipe_t *>, std::_Select1st<std::pair<const std::__cxx11::basic_string<char>, zmq::pipe_t *>>, std::less<std::__cxx11::basic_string<char>>>::_Rb_tree_impl" }
%"struct.std::_Rb_tree<std::__cxx11::basic_string<char>, std::pair<const std::__cxx11::basic_string<char>, zmq::pipe_t *>, std::_Select1st<std::pair<const std::__cxx11::basic_string<char>, zmq::pipe_t *>>, std::less<std::__cxx11::basic_string<char>>>::_Rb_tree_impl" = type { %"struct.std::_Rb_tree_key_compare.18", %"struct.std::_Rb_tree_header" }
%"class.zmq::array_t" = type { %"class.std::vector.45" }
%"class.std::vector.45" = type { %"struct.std::_Vector_base.46" }
%"struct.std::_Vector_base.46" = type { %"struct.std::_Vector_base<zmq::pipe_t *, std::allocator<zmq::pipe_t *>>::_Vector_impl" }
%"struct.std::_Vector_base<zmq::pipe_t *, std::allocator<zmq::pipe_t *>>::_Vector_impl" = type { %"struct.std::_Vector_base<zmq::pipe_t *, std::allocator<zmq::pipe_t *>>::_Vector_impl_data" }
%"struct.std::_Vector_base<zmq::pipe_t *, std::allocator<zmq::pipe_t *>>::_Vector_impl_data" = type { ptr, ptr, ptr }
%"class.zmq::clock_t" = type { i64, i64 }
%"class.zmq::mutex_t" = type <{ %union.pthread_mutex_t, %union.pthread_mutexattr_t, [4 x i8] }>
%union.pthread_mutex_t = type { %struct.__pthread_mutex_s }
%struct.__pthread_mutex_s = type { i32, i32, i32, i32, i32, i16, i16, %struct.__pthread_internal_list }
%struct.__pthread_internal_list = type { ptr, ptr }
%union.pthread_mutexattr_t = type { i32 }
%"class.std::map.50" = type { %"class.std::_Rb_tree.51" }
%"class.std::_Rb_tree.51" = type { %"struct.std::_Rb_tree<zmq::blob_t, std::pair<const zmq::blob_t, zmq::routing_socket_base_t::out_pipe_t>, std::_Select1st<std::pair<const zmq::blob_t, zmq::routing_socket_base_t::out_pipe_t>>, std::less<zmq::blob_t>>::_Rb_tree_impl" }
%"struct.std::_Rb_tree<zmq::blob_t, std::pair<const zmq::blob_t, zmq::routing_socket_base_t::out_pipe_t>, std::_Select1st<std::pair<const zmq::blob_t, zmq::routing_socket_base_t::out_pipe_t>>, std::less<zmq::blob_t>>::_Rb_tree_impl" = type { %"struct.std::_Rb_tree_key_compare.55", %"struct.std::_Rb_tree_header" }
%"struct.std::_Rb_tree_key_compare.55" = type { %"struct.std::less.56" }
%"struct.std::less.56" = type { i8 }
%"class.std::__cxx11::basic_string" = type { %"struct.std::__cxx11::basic_string<char>::_Alloc_hider", i64, %union.anon }
%"struct.std::__cxx11::basic_string<char>::_Alloc_hider" = type { ptr }
%union.anon = type { i64, [8 x i8] }
%"class.zmq::fq_t" = type <{ %"class.zmq::array_t.58", i64, i64, i8, [7 x i8] }>
%"class.zmq::array_t.58" = type { %"class.std::vector.45" }
%"class.zmq::msg_t" = type { %union.anon.59 }
%union.anon.59 = type { %struct.anon }
%struct.anon = type { ptr, [34 x i8], i8, i8, i32, %"union.zmq::msg_t::group_t" }
%"union.zmq::msg_t::group_t" = type { %struct.anon.61 }
%struct.anon.61 = type { i8, ptr }
%"class.std::set.67" = type { %"class.std::_Rb_tree.68" }
%"class.std::_Rb_tree.68" = type { %"struct.std::_Rb_tree<zmq::pipe_t *, zmq::pipe_t *, std::_Identity<zmq::pipe_t *>, std::less<zmq::pipe_t *>>::_Rb_tree_impl" }
%"struct.std::_Rb_tree<zmq::pipe_t *, zmq::pipe_t *, std::_Identity<zmq::pipe_t *>, std::less<zmq::pipe_t *>>::_Rb_tree_impl" = type { %"struct.std::_Rb_tree_key_compare.72", %"struct.std::_Rb_tree_header" }
%"struct.std::_Rb_tree_key_compare.72" = type { %"struct.std::less.73" }
%"struct.std::less.73" = type { i8 }

@stderr = external global ptr, align 8
@.str = private unnamed_addr constant [30 x i8] c"Assertion failed: %s (%s:%d)\0A\00", align 1
@.str.1 = private unnamed_addr constant [26 x i8] c"_anonymous_pipes.empty ()\00", align 1
@.str.2 = private unnamed_addr constant [106 x i8] c"generated/home/dtcxzyw/WorkSpace/Projects/compilers/llvm-opt-benchmark/bench/libzmq/libzmq/src/router.cpp\00", align 1

; Function Attrs: mustprogress nounwind uwtable
define linkonce_odr void @_ZNSt15__new_allocatorISt13_Rb_tree_nodeIPN3zmq6pipe_tEEED2Ev(ptr noundef nonnull align 1 dereferenceable(1) %this) unnamed_addr #2 comdat align 2 {
entry:
  %this.addr = alloca ptr, align 8
  store ptr %this, ptr %this.addr, align 8
  ret void
}

; Function Attrs: mustprogress nounwind uwtable
define linkonce_odr void @_ZNSaISt13_Rb_tree_nodeIPN3zmq6pipe_tEEED2Ev(ptr noundef nonnull align 1 dereferenceable(1) %this) unnamed_addr #2 comdat align 2 {
entry:
  %this.addr = alloca ptr, align 8
  store ptr %this, ptr %this.addr, align 8
  %this1 = load ptr, ptr %this.addr, align 8
  call void @_ZNSt15__new_allocatorISt13_Rb_tree_nodeIPN3zmq6pipe_tEEED2Ev(ptr noundef nonnull align 1 dereferenceable(1) %this1) #13
  ret void
}

; Function Attrs: mustprogress nounwind uwtable
define linkonce_odr noundef ptr @_ZNKSt8_Rb_treeIPN3zmq6pipe_tES2_St9_IdentityIS2_ESt4lessIS2_ESaIS2_EE9_M_mbeginEv(ptr noundef nonnull align 8 dereferenceable(48) %this) #2 comdat align 2 {
entry:
  %this.addr = alloca ptr, align 8
  store ptr %this, ptr %this.addr, align 8
  %this1 = load ptr, ptr %this.addr, align 8
  %_M_impl = getelementptr inbounds %"class.std::_Rb_tree.68", ptr %this1, i32 0, i32 0
  %add.ptr = getelementptr inbounds i8, ptr %_M_impl, i64 8
  %_M_header = getelementptr inbounds %"struct.std::_Rb_tree_header", ptr %add.ptr, i32 0, i32 0
  %_M_parent = getelementptr inbounds %"struct.std::_Rb_tree_node_base", ptr %_M_header, i32 0, i32 1
  %0 = load ptr, ptr %_M_parent, align 8
  ret ptr %0
}

; Function Attrs: mustprogress nounwind uwtable
define linkonce_odr void @_ZNSt8_Rb_treeIPN3zmq6pipe_tES2_St9_IdentityIS2_ESt4lessIS2_ESaIS2_EE13_Rb_tree_implIS6_Lb1EED2Ev(ptr noundef nonnull align 8 dereferenceable(48) %this) unnamed_addr #2 comdat align 2 {
entry:
  %this.addr = alloca ptr, align 8
  store ptr %this, ptr %this.addr, align 8
  %this1 = load ptr, ptr %this.addr, align 8
  call void @_ZNSaISt13_Rb_tree_nodeIPN3zmq6pipe_tEEED2Ev(ptr noundef nonnull align 1 dereferenceable(1) %this1) #13
  ret void
}

; Function Attrs: mustprogress nounwind uwtable
define linkonce_odr noundef ptr @_ZNSt8_Rb_treeIPN3zmq6pipe_tES2_St9_IdentityIS2_ESt4lessIS2_ESaIS2_EE8_M_beginEv(ptr noundef nonnull align 8 dereferenceable(48) %this) #2 comdat align 2 {
entry:
  %this.addr = alloca ptr, align 8
  store ptr %this, ptr %this.addr, align 8
  %this1 = load ptr, ptr %this.addr, align 8
  %call = call noundef ptr @_ZNKSt8_Rb_treeIPN3zmq6pipe_tES2_St9_IdentityIS2_ESt4lessIS2_ESaIS2_EE9_M_mbeginEv(ptr noundef nonnull align 8 dereferenceable(48) %this1) #13
  ret ptr %call
}

; Function Attrs: mustprogress nounwind uwtable
define linkonce_odr void @_ZNSt8_Rb_treeIPN3zmq6pipe_tES2_St9_IdentityIS2_ESt4lessIS2_ESaIS2_EED2Ev(ptr noundef nonnull align 8 dereferenceable(48) %this) unnamed_addr #2 comdat align 2 personality ptr @__gxx_personality_v0 {
entry:
  %this.addr = alloca ptr, align 8
  store ptr %this, ptr %this.addr, align 8
  %this1 = load ptr, ptr %this.addr, align 8
  %call = call noundef ptr @_ZNSt8_Rb_treeIPN3zmq6pipe_tES2_St9_IdentityIS2_ESt4lessIS2_ESaIS2_EE8_M_beginEv(ptr noundef nonnull align 8 dereferenceable(48) %this1) #13
  invoke void @_ZNSt8_Rb_treeIPN3zmq6pipe_tES2_St9_IdentityIS2_ESt4lessIS2_ESaIS2_EE8_M_eraseEPSt13_Rb_tree_nodeIS2_E(ptr noundef nonnull align 8 dereferenceable(48) %this1, ptr noundef %call)
          to label %invoke.cont unwind label %terminate.lpad

invoke.cont:                                      ; preds = %entry
  %_M_impl = getelementptr inbounds %"class.std::_Rb_tree.68", ptr %this1, i32 0, i32 0
  call void @_ZNSt8_Rb_treeIPN3zmq6pipe_tES2_St9_IdentityIS2_ESt4lessIS2_ESaIS2_EE13_Rb_tree_implIS6_Lb1EED2Ev(ptr noundef nonnull align 8 dereferenceable(48) %_M_impl) #13
  ret void

terminate.lpad:                                   ; preds = %entry
  %0 = landingpad { ptr, i32 }
          catch ptr null
  %1 = extractvalue { ptr, i32 } %0, 0
  call void @__clang_call_terminate(ptr %1) #14
  unreachable
}

; Function Attrs: mustprogress nounwind uwtable
define linkonce_odr noundef zeroext i1 @_ZNKSt8_Rb_treeIPN3zmq6pipe_tES2_St9_IdentityIS2_ESt4lessIS2_ESaIS2_EE5emptyEv(ptr noundef nonnull align 8 dereferenceable(48) %this) #2 comdat align 2 {
entry:
  %this.addr = alloca ptr, align 8
  store ptr %this, ptr %this.addr, align 8
  %this1 = load ptr, ptr %this.addr, align 8
  %_M_impl = getelementptr inbounds %"class.std::_Rb_tree.68", ptr %this1, i32 0, i32 0
  %add.ptr = getelementptr inbounds i8, ptr %_M_impl, i64 8
  %_M_node_count = getelementptr inbounds %"struct.std::_Rb_tree_header", ptr %add.ptr, i32 0, i32 1
  %0 = load i64, ptr %_M_node_count, align 8
  %cmp = icmp eq i64 %0, 0
  ret i1 %cmp
}

; Function Attrs: mustprogress nounwind uwtable
define linkonce_odr void @_ZNSt3setIPN3zmq6pipe_tESt4lessIS2_ESaIS2_EED2Ev(ptr noundef nonnull align 8 dereferenceable(48) %this) unnamed_addr #2 comdat align 2 {
entry:
  %this.addr = alloca ptr, align 8
  store ptr %this, ptr %this.addr, align 8
  %this1 = load ptr, ptr %this.addr, align 8
  %_M_t = getelementptr inbounds %"class.std::set.67", ptr %this1, i32 0, i32 0
  call void @_ZNSt8_Rb_treeIPN3zmq6pipe_tES2_St9_IdentityIS2_ESt4lessIS2_ESaIS2_EED2Ev(ptr noundef nonnull align 8 dereferenceable(48) %_M_t) #13
  ret void
}

; Function Attrs: mustprogress nounwind uwtable
define linkonce_odr noundef zeroext i1 @_ZNKSt3setIPN3zmq6pipe_tESt4lessIS2_ESaIS2_EE5emptyEv(ptr noundef nonnull align 8 dereferenceable(48) %this) #2 comdat align 2 {
entry:
  %this.addr = alloca ptr, align 8
  store ptr %this, ptr %this.addr, align 8
  %this1 = load ptr, ptr %this.addr, align 8
  %_M_t = getelementptr inbounds %"class.std::set.67", ptr %this1, i32 0, i32 0
  %call = call noundef zeroext i1 @_ZNKSt8_Rb_treeIPN3zmq6pipe_tES2_St9_IdentityIS2_ESt4lessIS2_ESaIS2_EE5emptyEv(ptr noundef nonnull align 8 dereferenceable(48) %_M_t) #13
  ret i1 %call
}

; Function Attrs: mustprogress nounwind uwtable
define void @_ZN3zmq8router_tD2Ev(ptr noundef nonnull align 8 dereferenceable(2180) %this) unnamed_addr #2 align 2 personality ptr @__gxx_personality_v0 {
entry:
  %this.addr = alloca ptr, align 8
  store ptr %this, ptr %this.addr, align 8
  %this1 = load ptr, ptr %this.addr, align 8
  store ptr getelementptr inbounds ({ [47 x ptr], [4 x ptr], [7 x ptr], [8 x ptr] }, ptr @_ZTVN3zmq8router_tE, i32 0, i32 0, i32 2), ptr %this1, align 8
  %add.ptr = getelementptr inbounds i8, ptr %this1, i64 1448
  store ptr getelementptr inbounds ({ [47 x ptr], [4 x ptr], [7 x ptr], [8 x ptr] }, ptr @_ZTVN3zmq8router_tE, i32 0, i32 1, i32 2), ptr %add.ptr, align 8
  %add.ptr2 = getelementptr inbounds i8, ptr %this1, i64 1464
  store ptr getelementptr inbounds ({ [47 x ptr], [4 x ptr], [7 x ptr], [8 x ptr] }, ptr @_ZTVN3zmq8router_tE, i32 0, i32 2, i32 2), ptr %add.ptr2, align 8
  %add.ptr3 = getelementptr inbounds i8, ptr %this1, i64 1472
  store ptr getelementptr inbounds ({ [47 x ptr], [4 x ptr], [7 x ptr], [8 x ptr] }, ptr @_ZTVN3zmq8router_tE, i32 0, i32 3, i32 2), ptr %add.ptr3, align 8
  br label %do.body

do.body:                                          ; preds = %entry
  %_anonymous_pipes = getelementptr inbounds %"class.zmq::router_t", ptr %this1, i32 0, i32 11
  %call = call noundef zeroext i1 @_ZNKSt3setIPN3zmq6pipe_tESt4lessIS2_ESaIS2_EE5emptyEv(ptr noundef nonnull align 8 dereferenceable(48) %_anonymous_pipes) #13
  %lnot = xor i1 %call, true
  br i1 %lnot, label %if.then, label %if.end

if.then:                                          ; preds = %do.body
  %0 = load ptr, ptr @stderr, align 8
  %call4 = invoke i32 (ptr, ptr, ...) @fprintf(ptr noundef %0, ptr noundef @.str, ptr noundef @.str.1, ptr noundef @.str.2, i32 noundef 40)
          to label %invoke.cont unwind label %terminate.lpad

invoke.cont:                                      ; preds = %if.then
  %1 = load ptr, ptr @stderr, align 8
  %call6 = invoke i32 @fflush(ptr noundef %1)
          to label %invoke.cont5 unwind label %terminate.lpad

invoke.cont5:                                     ; preds = %invoke.cont
  invoke void @_ZN3zmq9zmq_abortEPKc(ptr noundef @.str.1)
          to label %invoke.cont7 unwind label %terminate.lpad

invoke.cont7:                                     ; preds = %invoke.cont5
  br label %if.end

if.end:                                           ; preds = %invoke.cont7, %do.body
  br label %do.cond

do.cond:                                          ; preds = %if.end
  br label %do.end

do.end:                                           ; preds = %do.cond
  %_prefetched_id = getelementptr inbounds %"class.zmq::router_t", ptr %this1, i32 0, i32 5
  %call9 = invoke noundef i32 @_ZN3zmq5msg_t5closeEv(ptr noundef nonnull align 8 dereferenceable(64) %_prefetched_id)
          to label %invoke.cont8 unwind label %terminate.lpad

invoke.cont8:                                     ; preds = %do.end
  %_prefetched_msg = getelementptr inbounds %"class.zmq::router_t", ptr %this1, i32 0, i32 6
  %call11 = invoke noundef i32 @_ZN3zmq5msg_t5closeEv(ptr noundef nonnull align 8 dereferenceable(64) %_prefetched_msg)
          to label %invoke.cont10 unwind label %terminate.lpad

invoke.cont10:                                    ; preds = %invoke.cont8
  %_anonymous_pipes12 = getelementptr inbounds %"class.zmq::router_t", ptr %this1, i32 0, i32 11
  call void @_ZNSt3setIPN3zmq6pipe_tESt4lessIS2_ESaIS2_EED2Ev(ptr noundef nonnull align 8 dereferenceable(48) %_anonymous_pipes12) #13
  %_fq = getelementptr inbounds %"class.zmq::router_t", ptr %this1, i32 0, i32 1
  call void @_ZN3zmq4fq_tD1Ev(ptr noundef nonnull align 8 dereferenceable(41) %_fq) #13
  call void @_ZN3zmq21routing_socket_base_tD2Ev(ptr noundef nonnull align 8 dereferenceable(1912) %this1) #13
  ret void

terminate.lpad:                                   ; preds = %invoke.cont8, %do.end, %invoke.cont5, %invoke.cont, %if.then
  %2 = landingpad { ptr, i32 }
          catch ptr null
  %3 = extractvalue { ptr, i32 } %2, 0
  call void @__clang_call_terminate(ptr %3) #14
  unreachable
}