; Function Attrs: mustprogress nounwind uwtable
define void @_ZN3zmq8router_tD2Ev(ptr noundef nonnull align 8 dereferenceable(2180) %this) unnamed_addr #2 align 2 personality ptr @__gxx_personality_v0 {
entry:
  store ptr getelementptr inbounds ({ [47 x ptr], [4 x ptr], [7 x ptr], [8 x ptr] }, ptr @_ZTVN3zmq8router_tE, i64 0, i32 0, i64 2), ptr %this, align 8
  %add.ptr = getelementptr inbounds i8, ptr %this, i64 1448
  store ptr getelementptr inbounds ({ [47 x ptr], [4 x ptr], [7 x ptr], [8 x ptr] }, ptr @_ZTVN3zmq8router_tE, i64 0, i32 1, i64 2), ptr %add.ptr, align 8
  %add.ptr2 = getelementptr inbounds i8, ptr %this, i64 1464
  store ptr getelementptr inbounds ({ [47 x ptr], [4 x ptr], [7 x ptr], [8 x ptr] }, ptr @_ZTVN3zmq8router_tE, i64 0, i32 2, i64 2), ptr %add.ptr2, align 8
  %add.ptr3 = getelementptr inbounds i8, ptr %this, i64 1472
  store ptr getelementptr inbounds ({ [47 x ptr], [4 x ptr], [7 x ptr], [8 x ptr] }, ptr @_ZTVN3zmq8router_tE, i64 0, i32 3, i64 2), ptr %add.ptr3, align 8
  %_anonymous_pipes = getelementptr inbounds i8, ptr %this, i64 2112
  %_M_node_count.i.i = getelementptr inbounds i8, ptr %this, i64 2152
  %0 = load i64, ptr %_M_node_count.i.i, align 8
  %cmp.i.i = icmp eq i64 %0, 0
  br i1 %cmp.i.i, label %do.end, label %if.then

if.then:                                          ; preds = %entry
  %1 = load ptr, ptr @stderr, align 8
  %call4 = tail call i32 (ptr, ptr, ...) @fprintf(ptr noundef %1, ptr noundef nonnull @.str, ptr noundef nonnull @.str.1, ptr noundef nonnull @.str.2, i32 noundef 40) #17
  %2 = load ptr, ptr @stderr, align 8
  %call6 = tail call i32 @fflush(ptr noundef %2)
  invoke void @_ZN3zmq9zmq_abortEPKc(ptr noundef nonnull @.str.1)
          to label %do.end unwind label %terminate.lpad

do.end:                                           ; preds = %if.then, %entry
  %_prefetched_id = getelementptr inbounds i8, ptr %this, i64 1968
  %call9 = invoke noundef i32 @_ZN3zmq5msg_t5closeEv(ptr noundef nonnull align 8 dereferenceable(64) %_prefetched_id)
          to label %invoke.cont8 unwind label %terminate.lpad

invoke.cont8:                                     ; preds = %do.end
  %_prefetched_msg = getelementptr inbounds i8, ptr %this, i64 2032
  %call11 = invoke noundef i32 @_ZN3zmq5msg_t5closeEv(ptr noundef nonnull align 8 dereferenceable(64) %_prefetched_msg)
          to label %invoke.cont10 unwind label %terminate.lpad

invoke.cont10:                                    ; preds = %invoke.cont8
  %_M_parent.i.i.i.i = getelementptr inbounds i8, ptr %this, i64 2128
  %3 = load ptr, ptr %_M_parent.i.i.i.i, align 8
  invoke void @_ZNSt8_Rb_treeIPN3zmq6pipe_tES2_St9_IdentityIS2_ESt4lessIS2_ESaIS2_EE8_M_eraseEPSt13_Rb_tree_nodeIS2_E(ptr noundef nonnull align 8 dereferenceable(48) %_anonymous_pipes, ptr noundef %3)
          to label %_ZNSt3setIPN3zmq6pipe_tESt4lessIS2_ESaIS2_EED2Ev.exit unwind label %terminate.lpad.i.i

terminate.lpad.i.i:                               ; preds = %invoke.cont10
  %4 = landingpad { ptr, i32 }
          catch ptr null
  %5 = extractvalue { ptr, i32 } %4, 0
  tail call void @__clang_call_terminate(ptr %5) #16
  unreachable

_ZNSt3setIPN3zmq6pipe_tESt4lessIS2_ESaIS2_EED2Ev.exit: ; preds = %invoke.cont10
  %_fq = getelementptr inbounds i8, ptr %this, i64 1912
  tail call void @_ZN3zmq4fq_tD1Ev(ptr noundef nonnull align 8 dereferenceable(41) %_fq) #15
  tail call void @_ZN3zmq21routing_socket_base_tD2Ev(ptr noundef nonnull align 8 dereferenceable(1912) %this) #15
  ret void

terminate.lpad:                                   ; preds = %invoke.cont8, %do.end, %if.then
  %6 = landingpad { ptr, i32 }
          catch ptr null
  %7 = extractvalue { ptr, i32 } %6, 0
  tail call void @__clang_call_terminate(ptr %7) #16
  unreachable
}